target datalayout = "e-m:e-p270:32:32-p271:32:32-p272:64:64-i64:64-i128:128-f80:128-n8:16:32:64-S128"
target triple = "x86_64-pc-linux-gnu"

%struct.exr_attr_box2i_t = type { %struct.exr_attr_v2i_t, %struct.exr_attr_v2i_t }
%struct.exr_attr_v2i_t = type { i32, i32 }
%struct._priv_exr_part_t = type { i32, i32, %struct.exr_attribute_list, ptr, ptr, ptr, ptr, ptr, ptr, ptr, ptr, ptr, ptr, ptr, ptr, ptr, ptr, %struct.exr_attr_box2i_t, %struct.exr_attr_box2i_t, i32, i32, i32, float, i32, i32, ptr, ptr, ptr, ptr, i64, i16, i16, i32, i64, i64 }
%struct.exr_attribute_list = type { i32, i32, ptr, ptr }
%struct._priv_exr_context_t = type { i8, i8, i8, i8, i8, i8, i8, i8, %struct.exr_attr_string_t, %struct.exr_attr_string_t, ptr, ptr, ptr, ptr, ptr, ptr, ptr, ptr, i32, i32, i32, i32, i32, float, ptr, ptr, ptr, i64, ptr, ptr, i64, i32, i32, i32, i32, %struct._priv_exr_part_t, ptr, ptr, %struct.exr_attribute_list, %union.pthread_mutex_t, i8, i8, [2 x i8], i32 }
%struct.exr_attr_string_t = type { i32, i32, ptr }
%union.pthread_mutex_t = type { %struct.__pthread_mutex_s }
%struct.__pthread_mutex_s = type { i32, i32, i32, i32, i32, i16, i16, %struct.__pthread_internal_list }
%struct.__pthread_internal_list = type { ptr, ptr }
%struct._internal_exr_seq_scratch = type { ptr, i64, i64, i64, ptr, ptr, ptr }

@.str.88 = private unnamed_addr constant [28 x i8] c"Unable to read '%s' %s data\00", align 1
@.str.92 = private unnamed_addr constant [60 x i8] c"Attribute '%s': Invalid size %d (exp '%s' size 8 * %d (%d))\00", align 1

; Function Attrs: inlinehint nounwind uwtable
define internal void @priv_to_native64(ptr noundef %0, i32 noundef %1) #4 {
  %3 = alloca ptr, align 8
  %4 = alloca i32, align 4
  store ptr %0, ptr %3, align 8, !tbaa !34
  store i32 %1, ptr %4, align 4, !tbaa !10
  ret void
}

; Function Attrs: nounwind uwtable
define internal i32 @extract_attr_64bit(ptr noundef %0, ptr noundef %1, ptr noundef %2, ptr noundef %3, ptr noundef %4, i32 noundef %5, i32 noundef %6) #0 {
  %8 = alloca i32, align 4
  %9 = alloca ptr, align 8
  %10 = alloca ptr, align 8
  %11 = alloca ptr, align 8
  %12 = alloca ptr, align 8
  %13 = alloca ptr, align 8
  %14 = alloca i32, align 4
  %15 = alloca i32, align 4
  %16 = alloca i32, align 4
  %17 = alloca i32, align 4
  store ptr %0, ptr %9, align 8, !tbaa !3
  store ptr %1, ptr %10, align 8, !tbaa !95
  store ptr %2, ptr %11, align 8, !tbaa !34
  store ptr %3, ptr %12, align 8, !tbaa !93
  store ptr %4, ptr %13, align 8, !tbaa !93
  store i32 %5, ptr %14, align 4, !tbaa !10
  store i32 %6, ptr %15, align 4, !tbaa !10
  call void @llvm.lifetime.start.p0(i64 4, ptr %16) #7
  %18 = load i32, ptr %14, align 4, !tbaa !10
  %19 = load i32, ptr %15, align 4, !tbaa !10
  %20 = mul nsw i32 8, %19
  %21 = icmp ne i32 %18, %20
  br i1 %21, label %22, label %34

22:                                               ; preds = %7
  %23 = load ptr, ptr %9, align 8, !tbaa !3
  %24 = getelementptr inbounds nuw %struct._priv_exr_context_t, ptr %23, i32 0, i32 14
  %25 = load ptr, ptr %24, align 8, !tbaa !48
  %26 = load ptr, ptr %9, align 8, !tbaa !3
  %27 = load ptr, ptr %12, align 8, !tbaa !93
  %28 = load i32, ptr %14, align 4, !tbaa !10
  %29 = load ptr, ptr %13, align 8, !tbaa !93
  %30 = load i32, ptr %15, align 4, !tbaa !10
  %31 = load i32, ptr %15, align 4, !tbaa !10
  %32 = mul nsw i32 8, %31
  %33 = call i32 (ptr, i32, ptr, ...) %25(ptr noundef %26, i32 noundef 17, ptr noundef @.str.92, ptr noundef %27, i32 noundef %28, ptr noundef %29, i32 noundef %30, i32 noundef %32)
  store i32 %33, ptr %8, align 4
  store i32 1, ptr %17, align 4
  br label %59

34:                                               ; preds = %7
  %35 = load ptr, ptr %10, align 8, !tbaa !95
  %36 = getelementptr inbounds nuw %struct._internal_exr_seq_scratch, ptr %35, i32 0, i32 4
  %37 = load ptr, ptr %36, align 8, !tbaa !88
  %38 = load ptr, ptr %10, align 8, !tbaa !95
  %39 = load ptr, ptr %11, align 8, !tbaa !34
  %40 = load i32, ptr %15, align 4, !tbaa !10
  %41 = sext i32 %40 to i64
  %42 = mul i64 8, %41
  %43 = call i32 %37(ptr noundef %38, ptr noundef %39, i64 noundef %42)
  store i32 %43, ptr %16, align 4, !tbaa !10
  %44 = load i32, ptr %16, align 4, !tbaa !10
  %45 = icmp ne i32 %44, 0
  br i1 %45, label %46, label %55

46:                                               ; preds = %34
  %47 = load ptr, ptr %9, align 8, !tbaa !3
  %48 = getelementptr inbounds nuw %struct._priv_exr_context_t, ptr %47, i32 0, i32 14
  %49 = load ptr, ptr %48, align 8, !tbaa !48
  %50 = load ptr, ptr %9, align 8, !tbaa !3
  %51 = load i32, ptr %16, align 4, !tbaa !10
  %52 = load ptr, ptr %12, align 8, !tbaa !93
  %53 = load ptr, ptr %13, align 8, !tbaa !93
  %54 = call i32 (ptr, i32, ptr, ...) %49(ptr noundef %50, i32 noundef %51, ptr noundef @.str.88, ptr noundef %52, ptr noundef %53)
  store i32 %54, ptr %8, align 4
  store i32 1, ptr %17, align 4
  br label %59

55:                                               ; preds = %34
  %56 = load ptr, ptr %11, align 8, !tbaa !34
  %57 = load i32, ptr %15, align 4, !tbaa !10
  call void @priv_to_native64(ptr noundef %56, i32 noundef %57)
  %58 = load i32, ptr %16, align 4, !tbaa !10
  store i32 %58, ptr %8, align 4
  store i32 1, ptr %17, align 4
  br label %59

59:                                               ; preds = %55, %46, %22
  call void @llvm.lifetime.end.p0(i64 4, ptr %16) #7
  %60 = load i32, ptr %8, align 4
  ret i32 %60
}